; Function Attrs: mustprogress nofree norecurse nosync nounwind memory(readwrite, inaccessiblemem: none) uwtable
define hidden void @_ZN21SimulatedOperandStack5mergeERKS_(ptr nocapture noundef nonnull align 8 dereferenceable(32) %0, ptr nocapture noundef nonnull readonly align 8 dereferenceable(32) %1) local_unnamed_addr #4 align 2 {
  %3 = load i32, ptr %0, align 8
  %4 = icmp sgt i32 %3, 0
  br i1 %4, label %.lr.ph, label %._crit_edge

.lr.ph:                                           ; preds = %2
  %5 = getelementptr inbounds i8, ptr %0, i64 8
  %6 = getelementptr inbounds i8, ptr %1, i64 8
  %7 = zext nneg i32 %3 to i64
  br label %8

8:                                                ; preds = %.lr.ph, %_ZN21StackSlotAnalysisData5mergeES_.exit
  %indvars.iv = phi i64 [ %7, %.lr.ph ], [ %indvars.iv.next, %_ZN21StackSlotAnalysisData5mergeES_.exit ]
  %indvars.iv.next = add nsw i64 %indvars.iv, -1
  %9 = load ptr, ptr %5, align 8
  %10 = getelementptr inbounds %class.StackSlotAnalysisData, ptr %9, i64 %indvars.iv.next
  %11 = load ptr, ptr %6, align 8
  %12 = getelementptr inbounds %class.StackSlotAnalysisData, ptr %11, i64 %indvars.iv.next
  %.sroa.0.0.copyload = load i32, ptr %12, align 4
  %13 = load i32, ptr %10, align 4
  %14 = lshr i32 %13, 17
  %15 = trunc i32 %14 to i8
  %16 = lshr i32 %.sroa.0.0.copyload, 17
  %17 = trunc i32 %16 to i8
  %.not.i = icmp eq i8 %15, %17
  br i1 %.not.i, label %28, label %18

18:                                               ; preds = %8
  %19 = and i8 %15, -2
  %switch.i = icmp eq i8 %19, 12
  %20 = and i8 %17, -2
  %switch7.i = icmp eq i8 %20, 12
  %or.cond.i = and i1 %switch7.i, %switch.i
  br i1 %or.cond.i, label %21, label %_ZN21StackSlotAnalysisData5mergeES_.exit

21:                                               ; preds = %18
  %22 = xor i32 %13, %.sroa.0.0.copyload
  %23 = and i32 %22, 131071
  %24 = icmp eq i32 %23, 0
  br i1 %24, label %25, label %_ZN21StackSlotAnalysisData5mergeES_.exit

25:                                               ; preds = %21
  %26 = and i32 %13, 65535
  %27 = or disjoint i32 %26, 1572864
  br label %_ZN21StackSlotAnalysisData5mergeES_.exit

28:                                               ; preds = %8
  %29 = xor i32 %13, %.sroa.0.0.copyload
  %30 = and i32 %29, 131071
  %31 = icmp eq i32 %30, 0
  br i1 %31, label %_ZN21StackSlotAnalysisData5mergeES_.exit, label %32

32:                                               ; preds = %28
  %33 = and i32 %13, 33423360
  %34 = or disjoint i32 %33, 131071
  br label %_ZN21StackSlotAnalysisData5mergeES_.exit

_ZN21StackSlotAnalysisData5mergeES_.exit:         ; preds = %18, %21, %25, %28, %32
  %.sroa.05.0.i = phi i32 [ %34, %32 ], [ %27, %25 ], [ 1703935, %21 ], [ %13, %28 ], [ 2621439, %18 ]
  store i32 %.sroa.05.0.i, ptr %10, align 4
  %35 = icmp ugt i64 %indvars.iv, 1
  br i1 %35, label %8, label %._crit_edge, !llvm.loop !9

._crit_edge:                                      ; preds = %_ZN21StackSlotAnalysisData5mergeES_.exit, %2
  %36 = getelementptr inbounds i8, ptr %0, i64 24
  %37 = load i64, ptr %36, align 8
  %38 = getelementptr inbounds i8, ptr %1, i64 24
  %39 = load i64, ptr %38, align 8
  %40 = or i64 %39, %37
  store i64 %40, ptr %36, align 8
  ret void
}